target datalayout = "e-m:e-p270:32:32-p271:32:32-p272:64:64-i64:64-i128:128-f80:128-n8:16:32:64-S128"
target triple = "x86_64-pc-linux-gnu"

%struct.Ssw_Man_t_ = type { ptr, i32, ptr, ptr, ptr, ptr, i32, ptr, ptr, ptr, i32, i32, i32, i32, i32, i32, i32, i32, i32, i32, i32, ptr, i32, ptr, i32, i32, i32, i32, ptr, ptr, ptr, i32, ptr, i32, i32, ptr, ptr, ptr, i32, ptr, i32, i32, i32, i32, i32, i32, i32, i32, i32, i32, i32, i32, i32, i32, i32, i32, i32, i32, i32, i32, i32, i32, i64, i64, i64, i64, i64, i64, i64, i64, i64, i64 }
%struct.Ssw_Sat_t_ = type { ptr, i32, ptr, i32, ptr, ptr, ptr, i32 }
%struct.Ssw_Pars_t_ = type { i32, i32, i32, i32, i32, i32, i32, i32, i32, i32, i32, i32, i32, i32, i32, i32, i32, i32, i32, i32, i32, i32, i32, i32, i32, i32, i32, i32, i32, i32, i32, i32, i32, i32, i32, i32, i32, i32, i32, i32, ptr, ptr }
%struct.Aig_Obj_t_ = type { %union.anon, ptr, ptr, i64, i32, i32, %union.anon.0 }
%union.anon = type { ptr }
%union.anon.0 = type { ptr }
%struct.sat_solver_t = type { i32, i32, i32, i32, %struct.Sat_Mem_t_, i32, i32, ptr, ptr, i32, i32, i32, i32, i32, i64, i64, i64, ptr, ptr, i32, i32, %struct.veci_t, ptr, i32, ptr, ptr, ptr, ptr, ptr, ptr, ptr, ptr, %struct.veci_t, %struct.veci_t, %struct.veci_t, %struct.veci_t, ptr, %struct.veci_t, i32, i32, i32, double, double, i32, i32, i32, %struct.stats_t, i32, i32, i32, i32, i32, i64, i64, i64, %struct.veci_t, ptr, i32, i32, i32, %struct.veci_t, %struct.veci_t, i32, i32, i32, ptr, ptr, i32, ptr, i32, i32, %struct.veci_t, %struct.veci_t, %struct.veci_t, ptr, ptr, i32, ptr }
%struct.Sat_Mem_t_ = type { [2 x i32], [2 x i32], [2 x i32], [2 x i32], i32, i32, i32, i32, ptr }
%struct.stats_t = type { i32, i32, i32, i64, i64, i64, i64, i64, i64, i64 }
%struct.veci_t = type { i32, i32, ptr }

; Function Attrs: nounwind uwtable
define internal i32 @sat_solver_var_value(ptr noundef %0, i32 noundef %1) #0 {
  %3 = alloca ptr, align 8
  %4 = alloca i32, align 4
  store ptr %0, ptr %3, align 8
  store i32 %1, ptr %4, align 4
  %5 = load ptr, ptr %3, align 8
  %6 = getelementptr inbounds %struct.sat_solver_t, ptr %5, i32 0, i32 36
  %7 = load ptr, ptr %6, align 8
  %8 = load i32, ptr %4, align 4
  %9 = sext i32 %8 to i64
  %10 = getelementptr inbounds i32, ptr %7, i64 %9
  %11 = load i32, ptr %10, align 4
  %12 = icmp eq i32 %11, 1
  %13 = zext i1 %12 to i32
  ret i32 %13
}

; Function Attrs: nounwind uwtable
define internal i32 @Aig_IsComplement(ptr noundef %0) #0 {
  %2 = alloca ptr, align 8
  store ptr %0, ptr %2, align 8
  %3 = load ptr, ptr %2, align 8
  %4 = ptrtoint ptr %3 to i64
  %5 = and i64 %4, 1
  %6 = trunc i64 %5 to i32
  ret i32 %6
}

; Function Attrs: nounwind uwtable
define internal ptr @Aig_Regular(ptr noundef %0) #0 {
  %2 = alloca ptr, align 8
  store ptr %0, ptr %2, align 8
  %3 = load ptr, ptr %2, align 8
  %4 = ptrtoint ptr %3 to i64
  %5 = and i64 %4, -2
  %6 = inttoptr i64 %5 to ptr
  ret ptr %6
}

; Function Attrs: nounwind uwtable
define internal ptr @Ssw_ObjFrame(ptr noundef %0, ptr noundef %1, i32 noundef %2) #0 {
  %4 = alloca ptr, align 8
  %5 = alloca ptr, align 8
  %6 = alloca i32, align 4
  store ptr %0, ptr %4, align 8
  store ptr %1, ptr %5, align 8
  store i32 %2, ptr %6, align 4
  %7 = load ptr, ptr %4, align 8
  %8 = getelementptr inbounds %struct.Ssw_Man_t_, ptr %7, i32 0, i32 4
  %9 = load ptr, ptr %8, align 8
  %10 = load ptr, ptr %4, align 8
  %11 = getelementptr inbounds %struct.Ssw_Man_t_, ptr %10, i32 0, i32 1
  %12 = load i32, ptr %11, align 8
  %13 = load ptr, ptr %5, align 8
  %14 = getelementptr inbounds %struct.Aig_Obj_t_, ptr %13, i32 0, i32 5
  %15 = load i32, ptr %14, align 4
  %16 = mul nsw i32 %12, %15
  %17 = load i32, ptr %6, align 4
  %18 = add nsw i32 %16, %17
  %19 = sext i32 %18 to i64
  %20 = getelementptr inbounds ptr, ptr %9, i64 %19
  %21 = load ptr, ptr %20, align 8
  ret ptr %21
}

; Function Attrs: nounwind uwtable
define i32 @Ssw_ManGetSatVarValue(ptr noundef %0, ptr noundef %1, i32 noundef %2) #0 {
  %4 = alloca ptr, align 8
  %5 = alloca ptr, align 8
  %6 = alloca i32, align 4
  %7 = alloca i32, align 4
  %8 = alloca ptr, align 8
  %9 = alloca i32, align 4
  %10 = alloca i32, align 4
  store ptr %0, ptr %4, align 8
  store ptr %1, ptr %5, align 8
  store i32 %2, ptr %6, align 4
  store i32 0, ptr %7, align 4
  %11 = load ptr, ptr %4, align 8
  %12 = load ptr, ptr %5, align 8
  %13 = load i32, ptr %6, align 4
  %14 = call ptr @Ssw_ObjFrame(ptr noundef %11, ptr noundef %12, i32 noundef %13)
  store ptr %14, ptr %8, align 8
  %15 = load i32, ptr %7, align 4
  %16 = icmp ne i32 %15, 0
  br i1 %16, label %17, label %28

17:                                               ; preds = %3
  %18 = load ptr, ptr %4, align 8
  %19 = getelementptr inbounds %struct.Ssw_Man_t_, ptr %18, i32 0, i32 8
  %20 = load ptr, ptr %19, align 8
  %21 = load ptr, ptr %8, align 8
  %22 = call ptr @Aig_Regular(ptr noundef %21)
  %23 = call i32 @Ssw_CnfGetNodeValue(ptr noundef %20, ptr noundef %22)
  store i32 %23, ptr %9, align 4
  %24 = load ptr, ptr %8, align 8
  %25 = call i32 @Aig_IsComplement(ptr noundef %24)
  %26 = load i32, ptr %9, align 4
  %27 = xor i32 %26, %25
  store i32 %27, ptr %9, align 4
  br label %51

28:                                               ; preds = %3
  %29 = load ptr, ptr %4, align 8
  %30 = getelementptr inbounds %struct.Ssw_Man_t_, ptr %29, i32 0, i32 8
  %31 = load ptr, ptr %30, align 8
  %32 = load ptr, ptr %8, align 8
  %33 = call ptr @Aig_Regular(ptr noundef %32)
  %34 = call i32 @Ssw_ObjSatNum(ptr noundef %31, ptr noundef %33)
  store i32 %34, ptr %10, align 4
  %35 = load i32, ptr %10, align 4
  %36 = icmp ne i32 %35, 0
  br i1 %36, label %38, label %37

37:                                               ; preds = %28
  br label %49

38:                                               ; preds = %28
  %39 = load ptr, ptr %8, align 8
  %40 = call i32 @Aig_IsComplement(ptr noundef %39)
  %41 = load ptr, ptr %4, align 8
  %42 = getelementptr inbounds %struct.Ssw_Man_t_, ptr %41, i32 0, i32 8
  %43 = load ptr, ptr %42, align 8
  %44 = getelementptr inbounds %struct.Ssw_Sat_t_, ptr %43, i32 0, i32 2
  %45 = load ptr, ptr %44, align 8
  %46 = load i32, ptr %10, align 4
  %47 = call i32 @sat_solver_var_value(ptr noundef %45, i32 noundef %46)
  %48 = xor i32 %40, %47
  br label %49

49:                                               ; preds = %38, %37
  %50 = phi i32 [ 0, %37 ], [ %48, %38 ]
  store i32 %50, ptr %9, align 4
  br label %51

51:                                               ; preds = %49, %17
  %52 = load ptr, ptr %4, align 8
  %53 = getelementptr inbounds %struct.Ssw_Man_t_, ptr %52, i32 0, i32 0
  %54 = load ptr, ptr %53, align 8
  %55 = getelementptr inbounds %struct.Ssw_Pars_t_, ptr %54, i32 0, i32 17
  %56 = load i32, ptr %55, align 4
  %57 = icmp ne i32 %56, 0
  br i1 %57, label %58, label %71

58:                                               ; preds = %51
  %59 = load ptr, ptr %8, align 8
  %60 = call ptr @Aig_Regular(ptr noundef %59)
  %61 = getelementptr inbounds %struct.Aig_Obj_t_, ptr %60, i32 0, i32 3
  %62 = load i64, ptr %61, align 8
  %63 = lshr i64 %62, 3
  %64 = and i64 %63, 1
  %65 = trunc i64 %64 to i32
  %66 = icmp ne i32 %65, 0
  br i1 %66, label %67, label %70

67:                                               ; preds = %58
  %68 = load i32, ptr %9, align 4
  %69 = xor i32 %68, 1
  store i32 %69, ptr %9, align 4
  br label %70

70:                                               ; preds = %67, %58
  br label %71

71:                                               ; preds = %70, %51
  %72 = load i32, ptr %9, align 4
  ret i32 %72
}