; Function Attrs: nounwind uwtable
define range(i32 0, 2) i32 @Ssw_ManGetSatVarValue(ptr noundef readonly captures(none) %0, ptr noundef readonly captures(none) %1, i32 noundef %2) local_unnamed_addr #0 {
  %4 = getelementptr i8, ptr %0, i64 8
  %.val = load i32, ptr %4, align 8
  %5 = getelementptr i8, ptr %0, i64 32
  %.val20 = load ptr, ptr %5, align 8
  %6 = getelementptr i8, ptr %1, i64 36
  %.val21 = load i32, ptr %6, align 4
  %7 = mul nsw i32 %.val21, %.val
  %8 = add nsw i32 %7, %2
  %9 = sext i32 %8 to i64
  %10 = getelementptr inbounds ptr, ptr %.val20, i64 %9
  %11 = load ptr, ptr %10, align 8
  %12 = getelementptr inbounds nuw i8, ptr %0, i64 64
  %13 = load ptr, ptr %12, align 8
  %14 = ptrtoint ptr %11 to i64
  %15 = and i64 %14, -2
  %16 = inttoptr i64 %15 to ptr
  %17 = getelementptr i8, ptr %13, i64 32
  %.val22 = load ptr, ptr %17, align 8
  %18 = getelementptr i8, ptr %16, i64 36
  %.val23 = load i32, ptr %18, align 4
  %19 = tail call fastcc i32 @Ssw_ObjSatNum(ptr %.val22, i32 %.val23)
  %.not = icmp eq i32 %19, 0
  br i1 %.not, label %33, label %20

20:                                               ; preds = %3
  %21 = trunc i64 %14 to i32
  %22 = and i32 %21, 1
  %23 = load ptr, ptr %12, align 8
  %24 = getelementptr inbounds nuw i8, ptr %23, i64 16
  %25 = load ptr, ptr %24, align 8
  %26 = getelementptr i8, ptr %25, i64 328
  %.val24 = load ptr, ptr %26, align 8
  %27 = sext i32 %19 to i64
  %28 = getelementptr inbounds i32, ptr %.val24, i64 %27
  %29 = load i32, ptr %28, align 4
  %30 = icmp eq i32 %29, 1
  %31 = zext i1 %30 to i32
  %32 = xor i32 %22, %31
  br label %33

33:                                               ; preds = %20, %3
  %34 = phi i32 [ %32, %20 ], [ 0, %3 ]
  %35 = load ptr, ptr %0, align 8
  %36 = getelementptr inbounds nuw i8, ptr %35, i64 68
  %37 = load i32, ptr %36, align 4
  %.not18 = icmp eq i32 %37, 0
  br i1 %.not18, label %44, label %38

38:                                               ; preds = %33
  %39 = getelementptr inbounds nuw i8, ptr %16, i64 24
  %40 = load i64, ptr %39, align 8
  %41 = trunc i64 %40 to i32
  %42 = lshr i32 %41, 3
  %43 = and i32 %42, 1
  %spec.select = xor i32 %43, %34
  br label %44

44:                                               ; preds = %38, %33
  %.1 = phi i32 [ %34, %33 ], [ %spec.select, %38 ]
  ret i32 %.1
}